(lp0
Vhttps://c2.staticflickr.com/6/5827/22773549350_0dd4165c76_b.jpg
p1
aVhttps://c1.staticflickr.com/1/566/22543259068_ccb4694052_b.jpg
p2
aVhttp://i.imgur.com/DnQVCyl.jpg
p3
aVhttp://lastchancesalon.net/xview/barn-story-city.x.jpg
p4
aVhttp://i.imgur.com/qy9F8g6.jpg
p5
aVhttp://i.imgur.com/hXK1y5x.jpg?fb
p6
aVhttp://i.imgur.com/1PLktSj.jpg?fb
p7
aVhttps://c1.staticflickr.com/1/690/21068022272_dfbdb97782_b.jpg
p8
aVhttps://thumbs.gfycat.com/GlamorousPhonyFattaileddunnart-size_restricted.gif
p9
aVhttp://lastchancesalon.net/xview/0011-greenhouse.x.jpg
p10
aVhttp://i.imgur.com/ImpOfX4.png
p11
aVhttp://i.imgur.com/LiX8mf9.jpg
p12
aVhttp://i.imgur.com/IXJphS3.jpg?fb
p13
aVhttp://i.imgur.com/ElYMPYH.jpg?fb
p14
aVhttp://i.imgur.com/dVGdYDb.jpg
p15
aVhttps://c2.staticflickr.com/8/7069/6919422603_cac6e3537a_b.jpg
p16
aVhttp://i.imgur.com/ixiDNUv.jpg?fb
p17
aVhttp://i.imgur.com/Y4mcF9b.jpg?fb
p18
aVhttps://c2.staticflickr.com/6/5645/22432703006_15ca5b2412_b.jpg
p19
aVhttps://c1.staticflickr.com/1/626/22140278449_9f5bb7c25f_b.jpg
p20
aVhttp://lastchancesalon.net/xview/docked.x.jpg
p21
aVhttps://c2.staticflickr.com/6/5702/22691564582_4c827d20c4_b.jpg
p22
aVhttp://i.imgur.com/yB0aNR2.jpg?fb
p23
aVhttps://c2.staticflickr.com/6/5720/22063851654_8104e4d1e6_b.jpg
p24
aVhttp://i.imgur.com/ByB4SmBh.jpg
p25
aVhttp://lastchancesalon.net/xview/kildee.x.jpg
p26
aVhttps://c1.staticflickr.com/1/722/22083985223_42329a8e90_b.jpg
p27
aVhttp://i.imgur.com/K4AGRvt.jpg?fb
p28
aVhttp://i.imgur.com/CM7cxgw.jpg
p29
aVhttp://i.imgur.com/Bdkxkx8.png
p30
aVhttp://i.imgur.com/I1zqQXj.png?fb
p31
aVhttp://i.imgur.com/tDtiVlg.jpg
p32
aVhttps://c2.staticflickr.com/6/5836/22540341085_51ce814b36_b.jpg
p33
aVhttp://lastchancesalon.net/xview/4849-6921-farmhouse.x.jpg
p34
aVhttp://i.imgur.com/U9VV96J.jpg
p35
aVhttp://i.imgur.com/Le8re3q.jpg?fb
p36
aVhttp://i.imgur.com/NGJTahk.jpg
p37
aVhttp://i.imgur.com/Ilg9XOd.jpg
p38
aVhttp://i.imgur.com/AT8Ni0h.jpg
p39
aVhttps://c1.staticflickr.com/1/733/22304319578_e3de8796d3_b.jpg
p40
aVhttp://lastchancesalon.net/xview/minor-obstacles.x.jpg
p41
aVhttp://i.imgur.com/JSJZorO.jpg?fb
p42
aVhttps://i.imgur.com/XZhz8BT.png
p43
aVhttp://i.imgur.com/JARO8iN.png
p44
aVhttp://i.imgur.com/nc6k9Bn.jpg?fb
p45
aVhttps://c2.staticflickr.com/6/5765/22423629406_6b8ab23260_b.jpg
p46
aVhttps://c2.staticflickr.com/6/5686/21826720014_958c039f52_b.jpg
p47
aVhttps://c1.staticflickr.com/1/635/21826629714_89c7644095_b.jpg
p48
aVhttp://i.imgur.com/GwZZ3Nr.jpg?fb
p49
aVhttp://i.imgur.com/EGJCeYd.jpg
p50
aVhttp://i.imgur.com/BeHPLRQ.jpg
p51
aVhttp://i.imgur.com/LuN11YS.jpg
p52
aVhttps://c1.staticflickr.com/1/764/22410384342_cbcf91f1aa_b.jpg
p53
aVhttp://lastchancesalon.net/xview/2270-powerplant.x.jpg
p54
aVhttp://i.imgur.com/K01eSLB.jpg
p55
aVhttp://i.imgur.com/NXhGc21.jpg
p56
aVhttp://i.imgur.com/jPMC7Rx.jpg
p57
aVhttps://c1.staticflickr.com/1/648/22312789281_0ff650140a_b.jpg
p58
aVhttp://lastchancesalon.net/xview/3338-3339-dm-river-valley-colors.x.jpg
p59
aVhttp://i.imgur.com/Zw67j0c.jpg
p60
aVhttps://thumbs.gfycat.com/SentimentalWelltodoAffenpinscher-size_restricted.gif
p61
aVhttp://i.imgur.com/BpfNLrg.jpg?fb
p62
aVhttp://i.imgur.com/I0z2zSk.jpg
p63
aVhttp://i.imgur.com/M3FPrmh.jpg?fb
p64
aVhttps://c1.staticflickr.com/1/563/21617726344_a814fe0fa6_b.jpg
p65
aVhttp://i.imgur.com/rXot23Q.jpg?fb
p66
aVhttp://i.imgur.com/NNxC3Xp.jpg
p67
aVhttp://i.imgur.com/vlJfF2G.jpg
p68
aVhttp://i.imgur.com/zsbkMsz.png
p69
aVhttp://i.imgur.com/zdlLpIL.jpg
p70
aVhttp://lastchancesalon.net/xview/npl.x.jpg
p71
aVhttps://thumbs.gfycat.com/FirsthandPinkGuppy-size_restricted.gif
p72
aVhttp://i.imgur.com/AN20pxH.jpg?fb
p73
aVhttps://c2.staticflickr.com/6/5646/22159459825_37a0994758_b.jpg
p74
aVhttps://c1.staticflickr.com/1/729/21774090278_15261d3765_b.jpg
p75
aVhttp://i.imgur.com/DdmaBo3.jpg?fb
p76
aVhttp://i.imgur.com/JvjtkpS.jpg
p77
aVhttps://c1.staticflickr.com/1/673/21927743188_cc896c79b0_b.jpg
p78
aVhttp://lastchancesalon.net/xview/699-bar-closed.x.jpg
p79
aVhttp://i.imgur.com/NcFzxMA.jpg
p80
aVhttps://c1.staticflickr.com/1/692/21986727076_4e915b7ddb_b.jpg
p81
aVhttps://c2.staticflickr.com/6/5624/21897456938_0dfd85bd7b_b.jpg
p82
aVhttps://c2.staticflickr.com/6/5717/21464351884_bfac4b0efb_b.jpg
p83
aVhttps://c2.staticflickr.com/6/5762/21464352614_6c9d0cec55_b.jpg
p84
aVhttp://i.imgur.com/SCsM4mK.jpg?fb
p85
aVhttps://c1.staticflickr.com/1/710/22051596402_8298da7401_b.jpg
p86
aVhttps://c1.staticflickr.com/1/653/21875803170_5f4ae49d89_b.jpg
p87
aVhttps://c1.staticflickr.com/1/605/22037740076_5597969402_b.jpg
p88
aVhttps://c1.staticflickr.com/1/781/21392637233_d1ce24fff0_b.jpg
p89
aVhttps://c1.staticflickr.com/1/769/22036868296_4305ac9166_b.jpg
p90
aVhttps://c2.staticflickr.com/6/5664/22063898145_338b68482c_b.jpg
p91
aVhttps://c2.staticflickr.com/6/5819/22071334835_5b8eac0d87_b.jpg
p92
aVhttp://i.imgur.com/54LUFhM.jpg
p93
aVhttps://c1.staticflickr.com/1/736/21859894249_cb11a60e36_b.jpg
p94
aVhttps://c1.staticflickr.com/1/574/21860687289_54b5be3765_b.jpg
p95
aVhttps://c1.staticflickr.com/1/568/22070922181_561dd8cd6f_b.jpg
p96
aVhttp://lastchancesalon.net/xview/11-stone-tunnel.x.jpg
p97
aVhttps://thumbs.gfycat.com/WarmheartedUnsightlyAmericanshorthair-size_restricted.gif
p98
aVhttp://i.imgur.com/jORsnCv.jpg
p99
aVhttp://i.imgur.com/B5uBtzk.jpg
p100
aVhttps://c1.staticflickr.com/1/621/22038174221_04219f4daf_b.jpg
p101
aVhttps://c1.staticflickr.com/1/670/22015937062_64151a78bc_b.jpg
p102
aVhttps://c2.staticflickr.com/6/5699/21339216094_8b001c2c9c_b.jpg
p103
aVhttps://c1.staticflickr.com/1/591/21825610480_7665b2d878_b.jpg
p104
aVhttps://c1.staticflickr.com/1/750/22023706071_feb43a4dde_b.jpg
p105
aVhttp://lastchancesalon.net/xview/386-388-pumps.x.jpg
p106
aVhttps://c2.staticflickr.com/6/5076/6915335608_809986fae7_b.jpg
p107
aVhttp://i.imgur.com/PAz5jib.jpg
p108
aVhttps://c2.staticflickr.com/6/5802/21804128919_e587615850_b.jpg
p109
aVhttps://thumbs.gfycat.com/FaithfulWelloffGalago-size_restricted.gif
p110
aVhttps://thumbs.gfycat.com/MeagerBraveCassowary-size_restricted.gif
p111
aVhttp://i.imgur.com/qBQt5jb.png
p112
aVhttps://c2.staticflickr.com/6/5655/21922693106_1590e71baa_b.jpg
p113
aVhttps://c1.staticflickr.com/1/718/21933164106_721b472c14_b.jpg
p114
aVhttps://c2.staticflickr.com/6/5836/21772387399_31c0ea5533_b.jpg
p115
aVhttps://c1.staticflickr.com/1/585/21338127273_ff40d09508_b.jpg
p116
aVhttps://c2.staticflickr.com/6/5825/21887405936_9d07d613fc_b.jpg
p117
aVhttps://c1.staticflickr.com/1/767/21724190678_1ff62aa662_b.jpg
p118
aVhttp://i.imgur.com/uHFhKj1.jpg?fb
p119
aVhttps://c1.staticflickr.com/1/580/21693244596_7f2903a995_b.jpg
p120
aVhttps://c2.staticflickr.com/6/5809/21860189146_0e34e9f4dd_b.jpg
p121
aVhttp://i.imgur.com/u6vxB68.jpg
p122
aVhttp://i.imgur.com/okJ0tsu.jpg
p123
aVhttp://images.fotocommunity.de/bilder/3f3eddf1-aaa2-4fac-bd82-3ef7a4cc5be7.jpg
p124
aVhttp://lastchancesalon.net/xview/360-webs.x.jpg
p125
aVhttps://thumbs.gfycat.com/SelfassuredPinkGopher-size_restricted.gif
p126
aVhttps://c1.staticflickr.com/1/636/21867133821_81dcc54381_b.jpg
p127
aVhttp://i.imgur.com/2ejJYIN.jpg
p128
aVhttps://c2.staticflickr.com/6/5650/21222743914_1905944b90_b.jpg
p129
aVhttps://thumbs.gfycat.com/MadClassicDungenesscrab-size_restricted.gif
p130
aVhttp://i.imgur.com/tonv8x6.png
p131
aVhttps://thumbs.gfycat.com/VillainousFreshHectorsdolphin-size_restricted.gif
p132
aVhttps://thumbs.gfycat.com/LiveQuarrelsomeDugong-size_restricted.gif
p133
aVhttp://i.imgur.com/bMwNxEX.jpg
p134
aVhttps://c2.staticflickr.com/4/3581/3412202984_b94054c1de_b.jpg
p135
aVhttp://i.imgur.com/JRrz0iM.jpg?fb
p136
aVhttp://i.imgur.com/Emg1msw.gif?noredirect
p137
aVhttps://c1.staticflickr.com/1/669/21704412435_b6b34e454e_b.jpg
p138
aVhttps://c1.staticflickr.com/1/568/21692955282_0e56363c26_b.jpg
p139
aVhttps://thumbs.gfycat.com/LikableRespectfulAidi-size_restricted.gif
p140
aVhttp://lastchancesalon.net/xview/sunbeams.x.jpg
p141
aVhttp://i.imgur.com/yKLsWht.jpg
p142
aVhttp://i.imgur.com/fSsU3jj.jpg
p143
aVhttps://c1.staticflickr.com/1/647/21481585628_01f5f68ee8_b.jpg
p144
aVhttp://lastchancesalon.net/xview/atwater-park.x.jpg
p145
aVhttps://c1.staticflickr.com/1/640/21191342091_0484a1280b_b.jpg
p146
aVhttps://i.ytimg.com/vi/Clqr4DFPB3c/hqdefault.jpg
p147
aVhttp://i.imgur.com/gGN5gre.jpg
p148
aVhttp://i.imgur.com/gNjIHWm.jpg
p149
aVhttps://c2.staticflickr.com/6/5762/21368930008_62b210bcba_b.jpg
p150
aVhttp://i.imgur.com/dXCNwSl.jpg
p151
aVhttp://i.imgur.com/mMi9C0b.jpg
p152
aVhttp://i.imgur.com/TtF4rKg.jpg?fb
p153
aVhttps://thumbs.gfycat.com/AcademicDependableAmericanpainthorse-size_restricted.gif
p154
aVhttps://c2.staticflickr.com/6/5750/21315058920_1893c6ab3b_b.jpg
p155
aVhttp://i.imgur.com/Cfw4boN.gif
p156
aVhttp://i.imgur.com/S9cpTop.jpg
p157
aVhttp://i.imgur.com/sMXbEos.gif
p158
aVhttp://i.imgur.com/0gBHyJl.jpg
p159
aVhttps://c2.staticflickr.com/6/5677/21319840638_f35c2229a9_b.jpg
p160
aVhttp://i.imgur.com/NcFzxMA.jpg
p161
aVhttp://images.fotocommunity.de/bilder/c890a3af-56fd-4598-a2b3-6068478a047f.jpg
p162
aVhttp://i.imgur.com/NOl1ZBq.png
p163
aVhttps://c1.staticflickr.com/3/2269/1833995118_8e181f6cdf_b.jpg
p164
aVhttps://c2.staticflickr.com/4/3194/2776711055_7b7ccb3f33_b.jpg
p165
aVhttps://c2.staticflickr.com/4/3197/3094847654_7a52487c77_b.jpg
p166
aVhttp://lastchancesalon.net/xview/celeriac.x.jpg
p167
aVhttps://c1.staticflickr.com/9/8349/8238302525_ab2e7aa923_b.jpg
p168
aVhttps://c2.staticflickr.com/6/5692/20756035473_8c5d806af7_b.jpg
p169
aVhttps://thumbs.gfycat.com/MetallicJadedEasteuropeanshepherd-size_restricted.gif
p170
aVhttp://i.imgur.com/HBtWUlo.jpg
p171
aVhttp://i.imgur.com/hA9abxI.jpg
p172
aVhttp://i.imgur.com/kl4GtqI.jpg
p173
aVhttps://c1.staticflickr.com/9/8337/8245825604_14693be8bf_b.jpg
p174
aVhttps://c1.staticflickr.com/1/603/20751649674_7fa729c6ab_b.jpg
p175
aVhttps://c2.staticflickr.com/6/5663/20734102044_7f1b794758_b.jpg
p176
aVhttps://c1.staticflickr.com/1/760/21169030670_562d4126de_b.jpg
p177
aVhttps://c1.staticflickr.com/1/618/21168948400_690dcb7b89_b.jpg
p178
aVhttps://c1.staticflickr.com/1/612/20734223184_13b49cf293_b.jpg
p179
aVhttp://i.imgur.com/gaoh69o.jpg
p180
aVhttp://i.imgur.com/ARyloyN.jpg
p181
aVhttp://i.imgur.com/SkNs789.jpg
p182
aVhttp://i.imgur.com/d2KrX0B.png?fb
p183
aVhttps://c1.staticflickr.com/1/782/20994094760_7fd35705f6_b.jpg
p184
aVhttps://c1.staticflickr.com/1/545/19393304763_b64a661e87_b.jpg
p185
aVhttp://lastchancesalon.net/xview/katydid-b.x.jpg
p186
aVhttp://i.imgur.com/MQmsyfJ.jpg?fb
p187
aVhttp://i.imgur.com/mRZE4yJ.jpg?1?fb
p188
aVhttp://i.imgur.com/ZxcfFhE.gif
p189
aVhttp://i.imgur.com/w048jWa.jpg
p190
aVhttp://lastchancesalon.net/xview/path.x.jpg
p191
aVhttps://c2.staticflickr.com/6/5810/21276237572_a3a7a06fb2_b.jpg
p192
aVhttp://i.imgur.com/2GFWqfT.jpg
p193
aVhttp://i.imgur.com/gEg73ie.jpg?fb
p194
aVhttp://i.imgur.com/H8JTGC5.jpg?1
p195
aVhttps://c1.staticflickr.com/9/8341/8183306778_cca13aeeb8_b.jpg
p196
aVhttp://i.imgur.com/lonO61j.jpg?fb
p197
aVhttps://c2.staticflickr.com/4/3938/18830375346_ed3ab3b3f4_b.jpg
p198
aVhttps://c1.staticflickr.com/1/706/21078032565_a3536ca80f_b.jpg
p199
aVhttps://c1.staticflickr.com/1/580/21185582506_e525948604_b.jpg
p200
aVhttp://lastchancesalon.net/xview/662-cornfield-bwo.x.jpg
p201
aVhttp://images.fotocommunity.de/bilder/bf1e31cc-4055-41fb-8376-2dd1d93842a9.jpg
p202
aVhttp://i.imgur.com/iUF0Im9.jpg
p203
aVhttp://i.imgur.com/GO1oIdG.png?fb
p204
aVhttps://c2.staticflickr.com/6/5677/21048614402_d24ffb1302_b.jpg
p205
aVhttp://i.imgur.com/b0cVjRK.jpg?1?fb
p206
aVhttp://i.imgur.com/GDsq4ut.jpg?fb
p207
aVhttps://c1.staticflickr.com/1/650/20639329936_57ab4e734a_b.jpg
p208
aVhttps://c2.staticflickr.com/6/5804/21078051725_f25a373f65_b.jpg
p209
aVhttp://lastchancesalon.net/xview/tables-turned.x.jpg
p210
aVhttps://c1.staticflickr.com/1/718/20437531173_4bd700c917_b.jpg
p211
aVhttps://c1.staticflickr.com/9/8160/7102316655_34a952ccc8_b.jpg
p212
aVhttp://lastchancesalon.net/xview/thistlemania.x.jpg
p213
aVhttps://c1.staticflickr.com/9/8310/8037276123_0ebc9c82b2_b.jpg
p214
aVhttp://images.fotocommunity.de/bilder/cea7b022-6e00-4016-9017-2291bb5aa62d.jpg
p215
aVhttp://i.imgur.com/FJ3yXe1.jpg
p216
aVhttp://i.imgur.com/cXXXyN7.jpg?fb
p217
a.