(lp0
(lp1
I-1
aa(lp2
F1.0
aa(lp3
I-1
aa(lp4
F1.0
aa(lp5
I-1
aa(lp6
F1.0
aa(lp7
I-1
aa(lp8
F1.0
aa(lp9
I-1
aa(lp10
F1.0
aa(lp11
I-1
aa(lp12
F1.0
aa(lp13
I-1
aa(lp14
F1.0
aa(lp15
I-1
aa(lp16
F1.0
aa(lp17
I-1
aa(lp18
F1.0
aa(lp19
I-1
aa(lp20
F1.0
aa(lp21
I-1
aa(lp22
F1.0
aa(lp23
I-1
aa(lp24
F1.0
aa(lp25
I-1
aa(lp26
F1.0
aa(lp27
I-1
aa(lp28
F1.0
aa(lp29
I-1
aa(lp30
F1.0
aa(lp31
I-1
aa(lp32
F1.0
aa(lp33
I-1
aa(lp34
F1.0
aa(lp35
I-1
aa(lp36
F1.0
aa(lp37
I-1
aa(lp38
F1.0
aa(lp39
I-1
aa(lp40
F1.0
aa(lp41
I-1
aa(lp42
F1.0
aa(lp43
I-1
aa(lp44
F1.0
aa(lp45
I-1
aa(lp46
F1.0
aa(lp47
I-1
aa(lp48
F1.0
aa(lp49
I-1
aa(lp50
F1.0
aa(lp51
I-1
aa(lp52
F1.0
aa(lp53
I-1
aa(lp54
F1.0
aa(lp55
I-1
aa(lp56
F1.0
aa(lp57
I-1
aa(lp58
F1.0
aa(lp59
I-1
aa(lp60
F1.0
aa(lp61
I-1
aa(lp62
F1.0
aa(lp63
I-1
aa(lp64
F1.0
aa(lp65
I-1
aa(lp66
F1.0
aa(lp67
I-1
aa(lp68
F1.0
aa(lp69
I-1
aa(lp70
F1.0
aa(lp71
I-1
aa(lp72
F1.0
aa(lp73
I-1
aa(lp74
F1.0
aa(lp75
I-1
aa(lp76
F1.0
aa(lp77
I-1
aa(lp78
F1.0
aa(lp79
I-1
aa(lp80
F1.0
aa(lp81
I-1
aa(lp82
F1.0
aa(lp83
I-1
aa(lp84
F1.0
aa(lp85
I-1
aa(lp86
F1.0
aa(lp87
I-1
aa(lp88
F1.0
aa(lp89
I-1
aa(lp90
F1.0
aa(lp91
I-1
aa(lp92
F1.0
aa(lp93
I-1
aa(lp94
F1.0
aa(lp95
I-1
aa(lp96
F1.0
aa(lp97
I-1
aa(lp98
F1.0
aa(lp99
I-1
aa(lp100
F1.0
aa(lp101
I-1
aa(lp102
F1.0
aa(lp103
I-1
aa(lp104
F1.0
aa(lp105
I-1
aa(lp106
F1.0
aa(lp107
I-1
aa(lp108
F1.0
aa(lp109
I-1
aa(lp110
F1.0
aa(lp111
I-1
aa(lp112
F1.0
aa(lp113
I-1
aa(lp114
F1.0
aa(lp115
I-1
aa(lp116
F1.0
aa(lp117
I-1
aa(lp118
F1.0
aa(lp119
I-1
aa(lp120
F1.0
aa(lp121
I-1
aa(lp122
F1.0
aa(lp123
I-1
aa(lp124
F1.0
aa(lp125
I-1
aa(lp126
F1.0
aa(lp127
I-1
aa(lp128
F1.0
aa(lp129
I-1
aa(lp130
F1.0
aa(lp131
I-1
aa(lp132
F1.0
aa(lp133
I-1
aa(lp134
F1.0
aa(lp135
I-1
aa(lp136
F1.0
aa(lp137
I-1
aa(lp138
F1.0
aa(lp139
I-1
aa(lp140
F1.0
aa(lp141
I-1
aa(lp142
F1.0
aa(lp143
I-1
aa(lp144
F1.0
aa(lp145
I-1
aa(lp146
F1.0
aa(lp147
I-1
aa(lp148
F1.0
aa(lp149
I-1
aa(lp150
F1.0
aa(lp151
I-1
aa(lp152
F1.0
aa(lp153
I-1
aa(lp154
F1.0
aa(lp155
I-1
aa(lp156
F1.0
aa(lp157
I-1
aa(lp158
F1.0
aa(lp159
I-1
aa(lp160
F1.0
aa(lp161
I-1
aa(lp162
F1.0
aa(lp163
I-1
aa(lp164
F1.0
aa(lp165
I-1
aa(lp166
F1.0
aa(lp167
I-1
aa(lp168
F1.0
aa(lp169
I-1
aa(lp170
F1.0
aa(lp171
I-1
aa(lp172
F1.0
aa(lp173
I-1
aa(lp174
F1.0
aa(lp175
I-1
aa(lp176
F1.0
aa(lp177
I-1
aa(lp178
F1.0
aa(lp179
I-1
aa(lp180
F1.0
aa(lp181
I-1
aa(lp182
F1.0
aa(lp183
I-1
aa(lp184
F1.0
aa(lp185
I-1
aa(lp186
F1.0
aa(lp187
I-1
aa(lp188
F1.0
aa(lp189
I-1
aa(lp190
F1.0
aa(lp191
I-1
aa(lp192
F1.0
aa(lp193
I-1
aa(lp194
F1.0
aa(lp195
I-1
aa(lp196
F1.0
aa(lp197
I-1
aa(lp198
F1.0
aa(lp199
I-1
aa(lp200
F1.0
aa(lp201
I-1
aa(lp202
F1.0
aa(lp203
I-1
aa(lp204
F1.0
aa(lp205
I-1
aa(lp206
F1.0
aa(lp207
I-1
aa(lp208
F1.0
aa(lp209
I-1
aa(lp210
F1.0
aa(lp211
I-1
aa(lp212
F1.0
aa(lp213
I-1
aa(lp214
F1.0
aa(lp215
I-1
aa(lp216
F1.0
aa(lp217
I-1
aa(lp218
F1.0
aa(lp219
I-1
aa(lp220
F1.0
aa(lp221
I-1
aa(lp222
F1.0
aa(lp223
I-1
aa(lp224
F1.0
aa(lp225
I-1
aa(lp226
F1.0
aa(lp227
I-1
aa(lp228
F1.0
aa(lp229
I-1
aa(lp230
F1.0
aa(lp231
I-1
aa(lp232
F1.0
aa(lp233
I-1
aa(lp234
F1.0
aa(lp235
I-1
aa(lp236
F1.0
aa(lp237
I-1
aa(lp238
F1.0
aa(lp239
I-1
aa(lp240
F1.0
aa(lp241
I-1
aa(lp242
F1.0
aa(lp243
I-1
aa(lp244
F1.0
aa(lp245
I-1
aa(lp246
F1.0
aa(lp247
I-1
aa(lp248
F1.0
aa(lp249
I-1
aa(lp250
F1.0
aa(lp251
I-1
aa(lp252
F1.0
aa(lp253
I-1
aa(lp254
F1.0
aa(lp255
I-1
aa(lp256
F1.0
aa(lp257
I-1
aa(lp258
F1.0
aa(lp259
I-1
aa(lp260
F1.0
aa(lp261
I-1
aa(lp262
F1.0
aa(lp263
I-1
aa(lp264
F1.0
aa(lp265
I-1
aa(lp266
F1.0
aa(lp267
I-1
aa(lp268
F1.0
aa(lp269
I-1
aa(lp270
F1.0
aa(lp271
I-1
aa(lp272
F1.0
aa(lp273
I-1
aa(lp274
F1.0
aa(lp275
I-1
aa(lp276
F1.0
aa(lp277
I-1
aa(lp278
F1.0
aa(lp279
I-1
aa(lp280
F1.0
aa(lp281
I-1
aa(lp282
F1.0
aa(lp283
I-1
aa(lp284
F1.0
aa(lp285
I-1
aa(lp286
F1.0
aa(lp287
I-1
aa(lp288
F1.0
aa(lp289
I-1
aa(lp290
F1.0
aa(lp291
I-1
aa(lp292
F1.0
aa(lp293
I-1
aa(lp294
F1.0
aa(lp295
I-1
aa(lp296
F1.0
aa(lp297
I-1
aa(lp298
F1.0
aa(lp299
I-1
aa(lp300
F1.0
aa(lp301
I-1
aa(lp302
F1.0
aa(lp303
I-1
aa(lp304
F1.0
aa(lp305
I-1
aa(lp306
F1.0
aa(lp307
I-1
aa(lp308
F1.0
aa(lp309
I-1
aa(lp310
F1.0
aa(lp311
I-1
aa(lp312
F1.0
aa(lp313
I-1
aa(lp314
F1.0
aa(lp315
I-1
aa(lp316
F1.0
aa(lp317
I-1
aa(lp318
F1.0
aa(lp319
I-1
aa(lp320
F1.0
aa(lp321
I-1
aa(lp322
F1.0
aa(lp323
I-1
aa(lp324
F1.0
aa(lp325
I-1
aa(lp326
F1.0
aa(lp327
I-1
aa(lp328
F1.0
aa(lp329
I-1
aa(lp330
F1.0
aa(lp331
I-1
aa(lp332
F1.0
aa(lp333
I-1
aa(lp334
F1.0
aa(lp335
I-1
aa(lp336
F1.0
aa(lp337
I-1
aa(lp338
F1.0
aa(lp339
I-1
aa(lp340
F1.0
aa(lp341
I-1
aa(lp342
F1.0
aa(lp343
I-1
aa(lp344
F1.0
aa(lp345
I-1
aa(lp346
F1.0
aa(lp347
I-1
aa(lp348
F1.0
aa(lp349
I-1
aa(lp350
F1.0
aa(lp351
I-1
aa(lp352
F1.0
aa(lp353
I-1
aa(lp354
F1.0
aa(lp355
I-1
aa(lp356
F1.0
aa(lp357
I-1
aa(lp358
F1.0
aa(lp359
I-1
aa(lp360
F1.0
aa(lp361
I-1
aa(lp362
F1.0
aa(lp363
I-1
aa(lp364
F1.0
aa(lp365
I-1
aa(lp366
F1.0
aa(lp367
I-1
aa(lp368
F1.0
aa(lp369
I-1
aa(lp370
F1.0
aa(lp371
I-1
aa(lp372
F1.0
aa(lp373
I-1
aa(lp374
F1.0
aa(lp375
I-1
aa(lp376
F1.0
aa(lp377
I-1
aa(lp378
F1.0
aa(lp379
I-1
aa(lp380
F1.0
aa(lp381
I-1
aa(lp382
F1.0
aa(lp383
I-1
aa(lp384
F1.0
aa(lp385
I-1
aa(lp386
F1.0
aa(lp387
I-1
aa(lp388
F1.0
aa(lp389
I-1
aa(lp390
F1.0
aa(lp391
I-1
aa(lp392
F1.0
aa(lp393
I-1
aa(lp394
F1.0
aa(lp395
I-1
aa(lp396
F1.0
aa(lp397
I-1
aa(lp398
F1.0
aa(lp399
I-1
aa(lp400
F1.0
aa(lp401
I-1
aa(lp402
F1.0
aa(lp403
I-1
aa(lp404
F1.0
aa(lp405
I-1
aa(lp406
F1.0
aa(lp407
I-1
aa(lp408
F1.0
aa(lp409
I-1
aa(lp410
F1.0
aa(lp411
I-1
aa(lp412
F1.0
aa(lp413
I-1
aa(lp414
F1.0
aa(lp415
I-1
aa(lp416
F1.0
aa(lp417
I-1
aa(lp418
F1.0
aa(lp419
I-1
aa(lp420
F1.0
aa(lp421
I-1
aa(lp422
F1.0
aa(lp423
I-1
aa(lp424
F1.0
aa(lp425
I-1
aa(lp426
F1.0
aa(lp427
I-1
aa(lp428
F1.0
aa.